; Function Attrs: mustprogress nofree norecurse nosync nounwind willreturn memory(argmem: read) uwtable
define dso_local range(i64 0, 2) i64 @int2eq(ptr noundef readonly captures(none) %0) local_unnamed_addr #7 {
  %2 = getelementptr inbounds nuw i8, ptr %0, i64 32
  %3 = load i64, ptr %2, align 8
  %4 = trunc i64 %3 to i16
  %5 = getelementptr inbounds nuw i8, ptr %0, i64 48
  %6 = load i64, ptr %5, align 8
  %7 = trunc i64 %6 to i16
  %8 = icmp eq i16 %4, %7
  %9 = zext i1 %8 to i64
  ret i64 %9
}